target datalayout = "e-m:e-p270:32:32-p271:32:32-p272:64:64-i64:64-i128:128-f80:128-n8:16:32:64-S128"
target triple = "x86_64-pc-linux-gnu"

; Function Attrs: inlinehint nounwind uwtable
define internal void @put_pixels8_8_c(ptr noundef %0, ptr noundef %1, i64 noundef %2, i32 noundef %3) #2 {
  %5 = alloca ptr, align 8
  %6 = alloca ptr, align 8
  %7 = alloca i64, align 8
  %8 = alloca i32, align 4
  %9 = alloca i32, align 4
  store ptr %0, ptr %5, align 8, !tbaa !12
  store ptr %1, ptr %6, align 8, !tbaa !12
  store i64 %2, ptr %7, align 8, !tbaa !14
  store i32 %3, ptr %8, align 4, !tbaa !9
  call void @llvm.lifetime.start.p0(i64 4, ptr %9) #4
  store i32 0, ptr %9, align 4, !tbaa !9
  br label %10

10:                                               ; preds = %29, %4
  %11 = load i32, ptr %9, align 4, !tbaa !9
  %12 = load i32, ptr %8, align 4, !tbaa !9
  %13 = icmp slt i32 %11, %12
  br i1 %13, label %14, label %32

14:                                               ; preds = %10
  %15 = load ptr, ptr %6, align 8, !tbaa !12
  %16 = load i32, ptr %15, align 1, !tbaa !16
  %17 = load ptr, ptr %5, align 8, !tbaa !12
  store i32 %16, ptr %17, align 4, !tbaa !9
  %18 = load ptr, ptr %6, align 8, !tbaa !12
  %19 = getelementptr inbounds nuw i8, ptr %18, i64 4
  %20 = load i32, ptr %19, align 1, !tbaa !16
  %21 = load ptr, ptr %5, align 8, !tbaa !12
  %22 = getelementptr inbounds nuw i8, ptr %21, i64 4
  store i32 %20, ptr %22, align 4, !tbaa !9
  %23 = load i64, ptr %7, align 8, !tbaa !14
  %24 = load ptr, ptr %6, align 8, !tbaa !12
  %25 = getelementptr inbounds i8, ptr %24, i64 %23
  store ptr %25, ptr %6, align 8, !tbaa !12
  %26 = load i64, ptr %7, align 8, !tbaa !14
  %27 = load ptr, ptr %5, align 8, !tbaa !12
  %28 = getelementptr inbounds i8, ptr %27, i64 %26
  store ptr %28, ptr %5, align 8, !tbaa !12
  br label %29

29:                                               ; preds = %14
  %30 = load i32, ptr %9, align 4, !tbaa !9
  %31 = add nsw i32 %30, 1
  store i32 %31, ptr %9, align 4, !tbaa !9
  br label %10, !llvm.loop !17

32:                                               ; preds = %10
  call void @llvm.lifetime.end.p0(i64 4, ptr %9) #4
  ret void
}