; Function Attrs: inlinehint nofree norecurse nosync nounwind memory(argmem: readwrite) uwtable
define internal void @put_pixels8_8_c(ptr noundef writeonly captures(none) %0, ptr noundef readonly captures(none) %1, i64 noundef %2, i32 noundef %3) #2 {
  %5 = icmp sgt i32 %3, 0
  br i1 %5, label %.lr.ph, label %._crit_edge

.lr.ph:                                           ; preds = %4, %.lr.ph
  %.014 = phi i32 [ %12, %.lr.ph ], [ 0, %4 ]
  %.01013 = phi ptr [ %11, %.lr.ph ], [ %0, %4 ]
  %.01112 = phi ptr [ %10, %.lr.ph ], [ %1, %4 ]
  %6 = load i32, ptr %.01112, align 1, !tbaa !8
  store i32 %6, ptr %.01013, align 4, !tbaa !9
  %7 = getelementptr inbounds nuw i8, ptr %.01112, i64 4
  %8 = load i32, ptr %7, align 1, !tbaa !8
  %9 = getelementptr inbounds nuw i8, ptr %.01013, i64 4
  store i32 %8, ptr %9, align 4, !tbaa !9
  %10 = getelementptr inbounds i8, ptr %.01112, i64 %2
  %11 = getelementptr inbounds i8, ptr %.01013, i64 %2
  %12 = add nuw nsw i32 %.014, 1
  %exitcond.not = icmp eq i32 %12, %3
  br i1 %exitcond.not, label %._crit_edge, label %.lr.ph, !llvm.loop !11

._crit_edge:                                      ; preds = %.lr.ph, %4
  ret void
}